target datalayout = "e-m:e-p270:32:32-p271:32:32-p272:64:64-i64:64-i128:128-f80:128-n8:16:32:64-S128"
target triple = "x86_64-pc-linux-gnu"

; Function Attrs: nounwind uwtable
define i32 @generateMeasurementOutcome(double noundef %0, ptr noundef %1) #0 {
  %3 = alloca double, align 8
  %4 = alloca ptr, align 8
  %5 = alloca i32, align 4
  store double %0, ptr %3, align 8, !tbaa !18
  store ptr %1, ptr %4, align 8, !tbaa !27
  call void @llvm.lifetime.start.p0(i64 4, ptr %5) #8
  %6 = load double, ptr %3, align 8, !tbaa !18
  %7 = fcmp olt double %6, 1.000000e-13
  br i1 %7, label %8, label %9

8:                                                ; preds = %2
  store i32 1, ptr %5, align 4, !tbaa !9
  br label %20

9:                                                ; preds = %2
  %10 = load double, ptr %3, align 8, !tbaa !18
  %11 = fsub double 1.000000e+00, %10
  %12 = fcmp olt double %11, 1.000000e-13
  br i1 %12, label %13, label %14

13:                                               ; preds = %9
  store i32 0, ptr %5, align 4, !tbaa !9
  br label %19

14:                                               ; preds = %9
  %15 = call double @genrand_real1()
  %16 = load double, ptr %3, align 8, !tbaa !18
  %17 = fcmp ogt double %15, %16
  %18 = zext i1 %17 to i32
  store i32 %18, ptr %5, align 4, !tbaa !9
  br label %19

19:                                               ; preds = %14, %13
  br label %20

20:                                               ; preds = %19, %8
  %21 = load i32, ptr %5, align 4, !tbaa !9
  %22 = icmp eq i32 %21, 0
  br i1 %22, label %23, label %25

23:                                               ; preds = %20
  %24 = load double, ptr %3, align 8, !tbaa !18
  br label %28

25:                                               ; preds = %20
  %26 = load double, ptr %3, align 8, !tbaa !18
  %27 = fsub double 1.000000e+00, %26
  br label %28

28:                                               ; preds = %25, %23
  %29 = phi double [ %24, %23 ], [ %27, %25 ]
  %30 = load ptr, ptr %4, align 8, !tbaa !27
  store double %29, ptr %30, align 8, !tbaa !18
  %31 = load i32, ptr %5, align 4, !tbaa !9
  call void @llvm.lifetime.end.p0(i64 4, ptr %5) #8
  ret i32 %31
}