; Function Attrs: nounwind uwtable
define range(i32 0, 2) i32 @generateMeasurementOutcome(double noundef %0, ptr noundef writeonly captures(none) initializes((0, 8)) %1) local_unnamed_addr #11 {
  %3 = fcmp olt double %0, 1.000000e-13
  %4 = fsub double 1.000000e+00, %0
  br i1 %3, label %.thread, label %5

5:                                                ; preds = %2
  %6 = fcmp olt double %4, 1.000000e-13
  br i1 %6, label %.thread, label %7

7:                                                ; preds = %5
  %8 = tail call double @genrand_real1() #22
  %.fr15 = freeze double %8
  %9 = fcmp ogt double %.fr15, %0
  %10 = zext i1 %9 to i32
  %spec.select = select i1 %9, double %4, double %0
  br label %.thread

.thread:                                          ; preds = %2, %7, %5
  %.010 = phi i32 [ 0, %5 ], [ %10, %7 ], [ 1, %2 ]
  %11 = phi double [ %0, %5 ], [ %spec.select, %7 ], [ %4, %2 ]
  store double %11, ptr %1, align 8, !tbaa !13
  ret i32 %.010
}